ccollections
defaultdict
p0
(c__builtin__
float
p1
tp2
Rp3
(I8
I9
I0
tp4
F-0.3034055727554179
s(I12
I5
I1
tp5
F0.11826086956521742
s(I5
I2
I1
tp6
F0.2544369183767807
s(I13
I4
I0
tp7
F-0.14084507042253522
s(I19
I10
I0
tp8
F-0.5342960288808667
s(I17
I5
I0
tp9
F-0.24861878453038666
s(I3
I7
I0
tp10
F-0.30872483221476477
s(I11
I5
I1
tp11
F0.1460176991150442
s(I1
I2
I0
tp12
F-0.15527950310559002
s(I18
I3
I1
tp13
F0.48484848484848475
s(I14
I10
I0
tp14
F-0.16878241878241892
s(I4
I1
I1
tp15
F0.3120689655172415
s(I12
I7
I0
tp16
F0.006451612903225813
s(I17
I9
I0
tp17
F-0.2929936305732482
s(I18
I10
I1
tp18
F0.17088806486078797
s(I11
I9
I1
tp19
F-0.2613636363636363
s(I16
I6
I0
tp20
F-0.24999999999999994
s(I9
I9
I0
tp21
F-0.2692307692307692
s(I15
I2
I1
tp22
F0.13999999999999996
s(I10
I10
I1
tp23
F-0.30039525691699626
s(I21
I7
I0
tp24
F-0.8571428571428571
s(I3
I9
I1
tp25
F-0.21508771929824552
s(I7
I5
I0
tp26
F-0.12091503267973862
s(I17
I6
I1
tp27
F0.1595124536301008
s(I20
I8
I0
tp28
F-0.5957446808510642
s(I18
I1
I0
tp29
F-0.26315789473684215
s(I3
I4
I1
tp30
F0.1443317602168913
s(I21
I9
I1
tp31
F0.9293119698397737
s(I11
I2
I0
tp32
F0.2517985611510793
s(I16
I10
I0
tp33
F-0.37218045112781944
s(I14
I8
I1
tp34
F-0.13348359629351406
s(I4
I3
I0
tp35
F-0.1225165562913907
s(I2
I4
I0
tp36
F-0.12802768166089967
s(I10
I6
I1
tp37
F0.09505703422053231
s(I8
I10
I0
tp38
F-0.24969875726129995
s(I14
I5
I1
tp39
F0.0925035360678924
s(I17
I10
I1
tp40
F-0.143069582997708
s(I20
I4
I0
tp41
F-0.6666666666666667
s(I13
I3
I0
tp42
F-0.06976744186046513
s(I21
I5
I1
tp43
F0.9377777777777779
s(I6
I2
I0
tp44
F-0.03859649122807007
s(I7
I7
I1
tp45
F-0.026008036303300418
s(I16
I5
I1
tp46
F0.0745589072282299
s(I9
I10
I1
tp47
F-0.24999999999999994
s(I17
I4
I0
tp48
F-3.469446951953614e-18
s(I20
I10
I1
tp49
F0.7367991607413445
s(I3
I6
I0
tp50
F-0.20474777448071213
s(I1
I1
I0
tp51
F-0.2508143322475569
s(I7
I10
I1
tp52
F-0.29261666494721195
s(I9
I3
I1
tp53
F0.19324765933559193
s(I2
I2
I1
tp54
F0.25850870355936484
s(I21
I10
I0
tp55
F-0.6599999999999998
s(I16
I9
I1
tp56
F-0.23243243243243242
s(I19
I1
I0
tp57
F-0.2857142857142857
s(I17
I8
I0
tp58
F-0.3333333333333332
s(I2
I7
I1
tp59
F-0.026722018459554058
s(I20
I6
I1
tp60
F0.7794039382650331
s(I13
I1
I1
tp61
F0.27397260273972596
s(I8
I9
I1
tp62
F-0.2131211255562694
s(I16
I7
I0
tp63
F-0.39622641509433976
s(I9
I8
I0
tp64
F-0.052527653700899214
s(I13
I4
I1
tp65
F0.006802721088435384
s(I21
I6
I0
tp66
F-0.58252427184466
s(I1
I7
I1
tp67
F-0.02627145836675768
s(I7
I4
I0
tp68
F-0.1024844720496894
s(I19
I10
I1
tp69
F0.48039690222652615
s(I20
I9
I0
tp70
F-0.5714285714285712
s(I11
I5
I0
tp71
F0.21526232114467445
s(I1
I2
I1
tp72
F0.24891913530824458
s(I19
I3
I1
tp73
F0.6444444444444445
s(I12
I2
I1
tp74
F0.1777777777777778
s(I2
I5
I0
tp75
F-0.20198675496688745
s(I12
I7
I1
tp76
F-0.011494252873563204
s(I20
I5
I0
tp77
F-0.5362318840579711
s(I13
I2
I0
tp78
F0.03703703703703701
s(I18
I10
I0
tp79
F-0.48178137651821873
s(I6
I3
I0
tp80
F0.009523809523809544
s(I11
I9
I0
tp81
F0.016709988860007408
s(I10
I10
I0
tp82
F-0.09706349870325517
s(I3
I9
I0
tp83
F-0.47651006711409416
s(I11
I7
I1
tp84
F-0.05641025641025642
s(I18
I1
I1
tp85
F0.5499999999999999
s(I21
I9
I0
tp86
F-0.7142857142857141
s(I11
I2
I1
tp87
F0.21518987341772142
s(I14
I8
I0
tp88
F-0.03521466473709617
s(I4
I3
I1
tp89
F0.19660873592846895
s(I12
I1
I0
tp90
F-0.07272727272727274
s(I15
I9
I1
tp91
F-0.3436293436293436
s(I10
I6
I0
tp92
F0.14434612778508393
s(I18
I8
I1
tp93
F0.4019080234833652
s(I10
I8
I1
tp94
F-0.14785373608903013
s(I21
I5
I0
tp95
F-0.5375000000000001
s(I7
I7
I0
tp96
F-0.25000000000000006
s(I15
I5
I1
tp97
F0.09948214772417556
s(I17
I4
I1
tp98
F0.18888888888888894
s(I20
I10
I0
tp99
F-0.6301369863013697
s(I3
I6
I1
tp100
F0.07378535870026669
s(I11
I4
I0
tp101
F0.18518518518518515
s(I9
I3
I0
tp102
F0.14199395770392756
s(I2
I2
I0
tp103
F-0.11538461538461539
s(I10
I4
I1
tp104
F0.15908816789289723
s(I21
I10
I1
tp105
F0.9371783876500852
s(I17
I8
I1
tp106
F0.05232906238773791
s(I20
I6
I0
tp107
F-0.5820105820105823
s(I13
I1
I0
tp108
F6.938893903907228e-18
s(I21
I3
I1
tp109
F1.0
s(I11
I8
I0
tp110
F0.12650519031141857
s(I14
I2
I1
tp111
F0.15254237288135591
s(I7
I1
I1
tp112
F0.3173580102236663
s(I16
I7
I1
tp113
F-0.076923076923077
s(I9
I8
I1
tp114
F-0.16701902748414366
s(I21
I6
I1
tp115
F0.9246861924686199
s(I3
I8
I0
tp116
F-0.34294871794871823
s(I1
I7
I0
tp117
F-0.42024539877300615
s(I7
I4
I1
tp118
F0.15156626506024146
s(I9
I1
I1
tp119
F0.3130261809560156
s(I20
I9
I1
tp120
F0.8127591706539078
s(I21
I8
I0
tp121
F-0.49655172413793125
s(I14
I9
I0
tp122
F-0.10162448054401203
s(I19
I3
I0
tp123
F-0.5454545454545454
s(I12
I2
I0
tp124
F0.125
s(I2
I5
I1
tp125
F0.10928675400291067
s(I10
I7
I0
tp126
F-0.07096774193548394
s(I6
I6
I1
tp127
F0.06772816430137321
s(I20
I5
I1
tp128
F0.7985074626865672
s(I13
I2
I1
tp129
F0.2661870503597124
s(I21
I4
I0
tp130
F-0.761904761904762
s(I6
I3
I1
tp131
F0.2081240797886294
s(I8
I2
I1
tp132
F0.2559341191667988
s(I1
I5
I1
tp133
F0.101207701508662
s(I7
I6
I0
tp134
F-0.10365853658536589
s(I6
I10
I1
tp135
F-0.2995588640749881
s(I11
I7
I0
tp136
F-0.05555555555555558
s(I19
I5
I1
tp137
F0.6208489748772728
s(I9
I2
I0
tp138
F0.025316455696202528
s(I2
I3
I0
tp139
F-0.12337662337662332
s(I1
I9
I1
tp140
F-0.2204095254922737
s(I12
I1
I1
tp141
F0.4482758620689654
s(I15
I9
I0
tp142
F-0.1579303347987822
s(I20
I7
I0
tp143
F-0.36666666666666664
s(I18
I8
I0
tp144
F-0.3973214285714285
s(I6
I1
I0
tp145
F0.04658385093167709
s(I12
I8
I1
tp146
F-0.11805749372034618
s(I5
I7
I1
tp147
F-0.03210907849555227
s(I10
I8
I0
tp148
F0.02961717537506463
s(I8
I1
I0
tp149
F0.14903846153846154
s(I1
I6
I0
tp150
F-0.276056338028169
s(I4
I8
I1
tp151
F-0.11409098465118872
s(I15
I5
I0
tp152
F-0.17682926829268283
s(I11
I4
I1
tp153
F0.08571428571428574
s(I19
I2
I0
tp154
F-0.23529411764705876
s(I12
I3
I0
tp155
F-0.20454545454545453
s(I10
I4
I0
tp156
F0.13953488372093026
s(I18
I6
I1
tp157
F0.3800757985923112
s(I1
I10
I0
tp158
F-0.5217391304347827
s(I4
I4
I1
tp159
F0.14283419990765467
s(I21
I3
I0
tp160
F-1.0
s(I11
I8
I1
tp161
F-0.11475409836065566
s(I14
I2
I0
tp162
F0.09090909090909093
s(I7
I1
I0
tp163
F0.0797546012269939
s(I15
I7
I1
tp164
F-0.025210084033613446
s(I3
I8
I1
tp165
F-0.1220400728597454
s(I11
I6
I0
tp166
F0.2257225433526014
s(I9
I1
I0
tp167
F0.24584717607973416
s(I17
I3
I1
tp168
F0.3170731707317074
s(I10
I2
I1
tp169
F0.26389498463870975
s(I3
I1
I1
tp170
F0.31297219096608064
s(I21
I8
I1
tp171
F0.9350237717908089
s(I14
I9
I1
tp172
F-0.2568093385214008
s(I15
I8
I0
tp173
F-0.09414929388029603
s(I10
I7
I1
tp174
F-0.023230511957770112
s(I18
I9
I0
tp175
F-0.38172043010752665
s(I21
I1
I1
tp176
F1.0
s(I6
I6
I0
tp177
F-0.21036585365853655
s(I11
I10
I0
tp178
F-0.02244593586875457
s(I7
I3
I1
tp179
F0.19173089562048137
s(I10
I9
I0
tp180
F-0.04986884553924079
s(I21
I4
I1
tp181
F0.9117647058823529
s(I3
I10
I0
tp182
F-0.3843930635838148
s(I8
I2
I0
tp183
F-0.0474683544303798
s(I1
I5
I0
tp184
F-0.25867507886435326
s(I7
I6
I1
tp185
F0.06809331019857359
s(I9
I7
I1
tp186
F-0.02051911963109895
s(I15
I4
I0
tp187
F-0.2
s(I6
I10
I0
tp188
F-0.36543909348441955
s(I19
I5
I0
tp189
F-0.44886363636363646
s(I9
I2
I1
tp190
F0.2507037722190944
s(I2
I3
I1
tp191
F0.20519480519480437
s(I20
I2
I1
tp192
F0.8275862068965516
s(I10
I5
I0
tp193
F0.03625377643504533
s(I6
I4
I1
tp194
F0.16157082748948237
s(I1
I9
I0
tp195
F-0.49538461538461614
s(I2
I10
I1
tp196
F-0.3003659796522316
s(I20
I7
I1
tp197
F0.8378378378378377
s(I21
I2
I0
tp198
F-0.6923076923076924
s(I6
I1
I1
tp199
F0.31597089237839915
s(I8
I4
I1
tp200
F0.15400263252363275
s(I14
I3
I0
tp201
F0.0434782608695652
s(I12
I8
I0
tp202
F0.04992093968827638
s(I5
I7
I0
tp203
F-0.29337539432176674
s(I13
I9
I1
tp204
F-0.24352331606217592
s(I6
I8
I1
tp205
F-0.12237613508165264
s(I8
I1
I1
tp206
F0.31879262338081404
s(I1
I6
I1
tp207
F0.07378652055218889
s(I19
I7
I1
tp208
F0.4788732394366198
s(I4
I8
I0
tp209
F-0.2646153846153848
s(I2
I1
I0
tp210
F-0.08965517241379312
s(I5
I9
I1
tp211
F-0.20780760930847342
s(I19
I2
I1
tp212
F0.6428571428571428
s(I12
I3
I1
tp213
F0.3125
s(I20
I1
I0
tp214
F-0.38461538461538464
s(I18
I6
I0
tp215
F-0.37912087912087905
s(I6
I7
I0
tp216
F-0.236923076923077
s(I1
I10
I1
tp217
F-0.296584267252938
s(I4
I4
I0
tp218
F-0.08308605341246292
s(I12
I10
I1
tp219
F-0.3636363636363636
s(I5
I5
I1
tp220
F0.10758833751689499
s(I8
I3
I0
tp221
F0.03389830508474576
s(I1
I4
I0
tp222
F-0.2758620689655173
s(I4
I10
I1
tp223
F-0.2980725820454949
s(I15
I7
I0
tp224
F-0.13114754098360656
s(I13
I10
I0
tp225
F-0.12490448072247265
s(I11
I6
I1
tp226
F0.029940119760479066
s(I19
I4
I0
tp227
F-0.2727272727272727
s(I17
I3
I0
tp228
F-0.2894736842105263
s(I5
I10
I0
tp229
F-0.39344262295081983
s(I10
I2
I0
tp230
F0.23208191126279856
s(I18
I4
I1
tp231
F0.4175824175824175
s(I3
I1
I0
tp232
F-0.019736842105263185
s(I1
I8
I0
tp233
F-0.3601190476190481
s(I4
I6
I1
tp234
F0.06890801923375328
s(I15
I8
I1
tp235
F-0.12554605887939194
s(I18
I9
I1
tp236
F0.2680824869190526
s(I21
I1
I0
tp237
F-0.8461538461538461
s(I11
I10
I1
tp238
F-0.41463414634146306
s(I7
I3
I0
tp239
F0.02108433734939757
s(I12
I9
I0
tp240
F-0.03851146689744707
s(I15
I1
I1
tp241
F0.27083333333333337
s(I5
I6
I0
tp242
F-0.17263843648208468
s(I10
I9
I1
tp243
F-0.22799045779847804
s(I3
I10
I1
tp244
F-0.2991780918354763
s(I4
I9
I0
tp245
F-0.4235668789808915
s(I9
I7
I0
tp246
F-0.07415730337078659
s(I15
I4
I1
tp247
F0.037593984962406006
s(I17
I1
I1
tp248
F0.46249999999999986
s(I3
I3
I1
tp249
F0.20402881162095401
s(I15
I10
I0
tp250
F-0.21127224785761317
s(I20
I2
I0
tp251
F-0.36842105263157887
s(I10
I5
I1
tp252
F0.10350920060898926
s(I18
I7
I0
tp253
F-0.2978723404255319
s(I6
I4
I0
tp254
F-0.15666666666666673
s(I14
I6
I1
tp255
F0.04558331187226365
s(I4
I5
I0
tp256
F-0.13128491620111732
s(I2
I10
I0
tp257
F-0.495049504950495
s(I21
I2
I1
tp258
F0.8999999999999999
s(I8
I4
I0
tp259
F-0.07204610951008644
s(I14
I3
I1
tp260
F0.35353535353535365
s(I16
I2
I1
tp261
F0.4074074074074075
s(I9
I5
I1
tp262
F0.04318936877076411
s(I15
I6
I0
tp263
F-0.034313725490196095
s(I13
I9
I0
tp264
F-0.1295971978984237
s(I6
I8
I0
tp265
F-0.15960912052117282
s(I7
I9
I1
tp266
F-0.21007617526154793
s(I19
I7
I0
tp267
F-0.3333333333333333
s(I17
I2
I0
tp268
F-0.012987012987013005
s(I2
I1
I1
tp269
F0.3185917133618545
s(I5
I9
I0
tp270
F-0.40935672514619925
s(I10
I3
I0
tp271
F0.038338658146964834
s(I2
I8
I1
tp272
F-0.11339784145887652
s(I20
I1
I1
tp273
F0.78125
s(I6
I7
I1
tp274
F-0.0367946684866614
s(I8
I6
I1
tp275
F0.06681674396941557
s(I14
I1
I0
tp276
F0.13043478260869565
s(I7
I2
I0
tp277
F0.055555555555555546
s(I12
I10
I0
tp278
F-0.07466589192330013
s(I5
I5
I0
tp279
F-0.1088435374149661
s(I13
I7
I1
tp280
F-0.006451612903225849
s(I8
I3
I1
tp281
F0.19863727454909935
s(I16
I1
I0
tp282
F-0.11320754716981131
s(I1
I4
I1
tp283
F0.15057621004108718
s(I19
I9
I1
tp284
F0.5853972338372468
s(I4
I10
I0
tp285
F-0.4693251533742334
s(I9
I6
I0
tp286
F-0.02121212121212118
s(I13
I10
I1
tp287
F-0.3191489361702126
s(I19
I4
I1
tp288
F0.7142857142857145
s(I20
I3
I0
tp289
F-0.36363636363636365
s(I5
I10
I1
tp290
F-0.29643066929270523
s(I18
I4
I0
tp291
F-0.358974358974359
s(I6
I5
I0
tp292
F-0.039274924471299114
s(I1
I8
I1
tp293
F-0.11610542820876518
s(I4
I6
I0
tp294
F-0.1399317406143344
s(I12
I4
I1
tp295
F0.1891891891891892
s(I5
I3
I1
tp296
F0.1887977210263388
s(I8
I5
I0
tp297
F0.027848101265822798
s(I12
I9
I1
tp298
F-0.2503703703703701
s(I15
I1
I0
tp299
F-0.20000000000000007
s(I5
I6
I1
tp300
F0.0704268881591655
s(I13
I8
I0
tp301
F-0.08114558472553707
s(I6
I9
I0
tp302
F-0.3781512605042019
s(I19
I6
I0
tp303
F-0.5542168674698797
s(I4
I9
I1
tp304
F-0.21082016198788903
s(I17
I1
I0
tp305
F-0.2391304347826087
s(I5
I8
I0
tp306
F-0.2949852507374628
s(I18
I2
I1
tp307
F0.5283018867924527
s(I3
I3
I0
tp308
F-0.12237762237762236
s(I11
I1
I1
tp309
F0.2910052910052908
s(I15
I10
I1
tp310
F-0.39325842696629193
s(I18
I7
I1
tp311
F0.5070422535211268
s(I14
I6
I0
tp312
F-0.12280701754385967
s(I4
I5
I1
tp313
F0.10894926553234416
s(I15
I3
I1
tp314
F0.1724137931034483
s(I5
I4
I0
tp315
F-0.15960912052117243
s(I16
I2
I0
tp316
F-0.0476190476190476
s(I9
I5
I0
tp317
F0.08932023356384179
s(I15
I6
I1
tp318
F0.07317073170731704
s(I17
I7
I1
tp319
F0.19047619047619035
s(I3
I5
I1
tp320
F0.11055813682225633
s(I7
I9
I0
tp321
F-0.4254658385093167
s(I17
I2
I1
tp322
F-0.09999999999999999
s(I10
I3
I1
tp323
F0.195914353942166
s(I18
I5
I0
tp324
F-0.44843049327354284
s(I14
I4
I1
tp325
F0.13846153846153852
s(I4
I7
I0
tp326
F-0.18018018018018034
s(I2
I8
I0
tp327
F-0.4392523364485979
s(I8
I6
I0
tp328
F-0.09345794392523363
s(I14
I1
I1
tp329
F0.25984251968503924
s(I16
I4
I1
tp330
F0.03896103896103898
s(I7
I2
I1
tp331
F0.2617909785655225
s(I13
I7
I0
tp332
F-0.17543859649122812
s(I16
I1
I1
tp333
F0.24050632911392408
s(I19
I9
I0
tp334
F-0.5000000000000004
s(I9
I6
I1
tp335
F0.07250726226890562
s(I10
I1
I0
tp336
F0.18327974276527334
s(I3
I2
I0
tp337
F-0.15644171779141117
s(I16
I8
I1
tp338
F-0.10703068374003412
s(I2
I6
I1
tp339
F0.07870947630922774
s(I20
I3
I1
tp340
F1.0
s(I6
I5
I1
tp341
F0.10489781672935965
s(I8
I8
I1
tp342
F-0.11432491563763124
s(I14
I7
I0
tp343
F-0.027397260273972636
s(I12
I4
I0
tp344
F0.27544910179640714
s(I5
I3
I0
tp345
F-0.05059523809523806
s(I13
I5
I1
tp346
F0.1297668038408781
s(I8
I5
I1
tp347
F0.1015899516608103
s(I16
I3
I0
tp348
F-0.17948717948717954
s(I9
I4
I0
tp349
F-0.0031055900621118145
s(I13
I8
I1
tp350
F-0.10428497676819828
s(I6
I9
I1
tp351
F-0.20994247344550707
s(I1
I3
I1
tp352
F0.19665625944203904
s(I7
I8
I0
tp353
F-0.23947368421052637
s(I19
I6
I1
tp354
F0.6048017264634465
s(I5
I8
I1
tp355
F-0.11296224784391644
s(I18
I2
I0
tp356
F-0.4193548387096775
s(I11
I1
I0
tp357
F0.25000000000000006
s(I12
I6
I1
tp358
F-0.005235602094240851
s(I2
I9
I0
tp359
F-0.4072727272727273
s(I5
I1
I1
tp360
F0.3178132776752045
s(I8
I7
I0
tp361
F-0.07650273224043717
s(I15
I3
I0
tp362
F-0.04545454545454546
s(I5
I4
I1
tp363
F0.14647819645216836
s(I13
I6
I0
tp364
F-0.022598870056497185
s(I19
I8
I0
tp365
F-0.40957446808510645
s(I17
I7
I0
tp366
F-0.577777777777778
s(I3
I5
I0
tp367
F-0.147239263803681
s(I11
I3
I1
tp368
F0.2897196261682243
s(I4
I2
I1
tp369
F0.2608049485861201
s(I18
I5
I1
tp370
F0.43667621776504245
s(I14
I4
I0
tp371
F-0.169811320754717
s(I4
I7
I1
tp372
F-0.027930937336499366
s(I12
I5
I0
tp373
F0.11666666666666675
s(I5
I2
I0
tp374
F-0.06501547987616102
s(I16
I4
I0
tp375
F-0.046874999999999986
s(I17
I5
I1
tp376
F0.23150762281197054
s(I3
I7
I1
tp377
F-0.029047141424272865
s(I10
I1
I1
tp378
F0.3125874405404357
s(I18
I3
I0
tp379
F-0.3793103448275862
s(I3
I2
I1
tp380
F0.25632784250703056
s(I16
I8
I0
tp381
F-0.2870813397129186
s(I14
I10
I1
tp382
F-0.2945454545454545
s(I4
I1
I0
tp383
F-0.10544217687074832
s(I17
I9
I1
tp384
F-0.05525734133249126
s(I2
I6
I0
tp385
F-0.16333333333333339
s(I8
I8
I0
tp386
F-0.2131979695431471
s(I14
I7
I1
tp387
F-0.08474576271186443
s(I16
I6
I1
tp388
F0.0593849416755037
s(I9
I9
I1
tp389
F-0.2069399044505917
s(I15
I2
I0
tp390
F-0.1836734693877551
s(I13
I5
I0
tp391
F0.05027932960893855
s(I21
I7
I1
tp392
F0.9499999999999998
s(I7
I5
I1
tp393
F0.11012536162005734
s(I16
I3
I1
tp394
F0.42499999999999993
s(I9
I4
I1
tp395
F0.14891653290529647
s(I17
I6
I0
tp396
F-0.2786885245901638
s(I20
I8
I1
tp397
F0.791377497371188
s(I3
I4
I0
tp398
F-0.1564417177914113
s(I16
I10
I1
tp399
F-0.2986562635457293
s(I1
I3
I0
tp400
F-0.19999999999999998
s(I7
I8
I1
tp401
F-0.12147597655888955
s(I2
I4
I1
tp402
F0.1428628797461998
s(I8
I10
I1
tp403
F-0.38650306748466234
s(I14
I5
I0
tp404
F-0.04571428571428569
s(I12
I6
I0
tp405
F0.1422742110990209
s(I17
I10
I0
tp406
F-0.392857142857143
s(I2
I9
I1
tp407
F-0.20373919505612784
s(I20
I4
I1
tp408
F0.8
s(I5
I1
I0
tp409
F0.06122448979591839
s(I13
I3
I1
tp410
F0.34193548387096784
s(I6
I2
I1
tp411
F0.2589364607598967
s(I8
I7
I1
tp412
F-0.0295834090587831
s(I16
I5
I0
tp413
F-0.19791666666666677
s(I9
I10
I0
tp414
F-0.18250395216166115
s(I13
I6
I1
tp415
F0.061656522889653516
s(I1
I1
I1
tp416
F0.3153440006448761
s(I7
I10
I0
tp417
F-0.36170212765957427
s(I19
I8
I1
tp418
F0.6221699863911907
s(I11
I3
I0
tp419
F0.41052631578947363
s(I16
I9
I0
tp420
F-0.20189790575916253
s(I19
I1
I1
tp421
F0.8695652173913042
s(I4
I2
I0
tp422
F0.016077170418006426
s(I2
I7
I0
tp423
F-0.4166666666666668
s.